; Function Attrs: mustprogress uwtable
define void @_ZN7mitsuba6Stream10read_tokenEv(ptr dead_on_unwind noalias writable sret(%"class.std::__1::basic_string") align 8 %0, ptr noundef nonnull align 8 dereferenceable(16) %1) unnamed_addr #6 align 2 personality ptr @__gxx_personality_v0 {
  %3 = alloca i8, align 1
  tail call void @llvm.memset.p0.i64(ptr noundef nonnull align 8 dereferenceable(24) %0, i8 0, i64 24, i1 false)
  %4 = getelementptr inbounds i8, ptr %0, i64 8
  br label %_ZNSt3__112basic_stringIcNS_11char_traitsIcEENS_9allocatorIcEEEpLB8ne190000Ec.exit

_ZNSt3__112basic_stringIcNS_11char_traitsIcEENS_9allocatorIcEEEpLB8ne190000Ec.exit: ; preds = %_ZNSt3__112basic_stringIcNS_11char_traitsIcEENS_9allocatorIcEEEpLB8ne190000Ec.exit.backedge, %2
  %5 = load ptr, ptr %1, align 8
  %6 = getelementptr inbounds i8, ptr %5, i64 88
  %7 = load ptr, ptr %6, align 8
  invoke void %7(ptr noundef nonnull align 8 dereferenceable(16) %1, ptr noundef nonnull %3, i64 noundef 1)
          to label %8 unwind label %20

8:                                                ; preds = %_ZNSt3__112basic_stringIcNS_11char_traitsIcEENS_9allocatorIcEEEpLB8ne190000Ec.exit
  %9 = load i8, ptr %3, align 1
  %10 = sext i8 %9 to i32
  %11 = call i32 @isspace(i32 noundef %10) #21
  %.not = icmp eq i32 %11, 0
  br i1 %.not, label %44, label %12

12:                                               ; preds = %8
  %13 = load i8, ptr %0, align 8
  %14 = and i8 %13, 1
  %.not.i.i = icmp eq i8 %14, 0
  %15 = load i64, ptr %4, align 8
  %16 = lshr i8 %13, 1
  %17 = zext nneg i8 %16 to i64
  %18 = select i1 %.not.i.i, i64 %17, i64 %15
  %19 = icmp eq i64 %18, 0
  br i1 %19, label %_ZNSt3__112basic_stringIcNS_11char_traitsIcEENS_9allocatorIcEEEpLB8ne190000Ec.exit.backedge, label %.loopexit

20:                                               ; preds = %44, %_ZNSt3__112basic_stringIcNS_11char_traitsIcEENS_9allocatorIcEEEpLB8ne190000Ec.exit
  %21 = landingpad { ptr, i32 }
          catch ptr null
  %22 = extractvalue { ptr, i32 } %21, 0
  %23 = call ptr @__cxa_begin_catch(ptr %22) #16
  %24 = load ptr, ptr %1, align 8
  %25 = getelementptr inbounds i8, ptr %24, i64 120
  %26 = load ptr, ptr %25, align 8
  %27 = invoke noundef i64 %26(ptr noundef nonnull align 8 dereferenceable(16) %1)
          to label %28 unwind label %45

28:                                               ; preds = %20
  %29 = load ptr, ptr %1, align 8
  %30 = getelementptr inbounds i8, ptr %29, i64 128
  %31 = load ptr, ptr %30, align 8
  %32 = invoke noundef i64 %31(ptr noundef nonnull align 8 dereferenceable(16) %1)
          to label %33 unwind label %45

33:                                               ; preds = %28
  %34 = icmp eq i64 %27, %32
  br i1 %34, label %35, label %47

35:                                               ; preds = %33
  %36 = load i8, ptr %0, align 8
  %37 = and i8 %36, 1
  %.not.i.i7 = icmp eq i8 %37, 0
  %38 = load i64, ptr %4, align 8
  %39 = lshr i8 %36, 1
  %40 = zext nneg i8 %39 to i64
  %41 = select i1 %.not.i.i7, i64 %40, i64 %38
  %42 = icmp eq i64 %41, 0
  br i1 %42, label %47, label %43

43:                                               ; preds = %35
  invoke void @__cxa_end_catch()
          to label %.loopexit unwind label %48

44:                                               ; preds = %8
  invoke void @_ZNSt3__112basic_stringIcNS_11char_traitsIcEENS_9allocatorIcEEE9push_backEc(ptr noundef nonnull align 8 dereferenceable(24) %0, i8 noundef signext %9)
          to label %_ZNSt3__112basic_stringIcNS_11char_traitsIcEENS_9allocatorIcEEEpLB8ne190000Ec.exit.backedge unwind label %20

_ZNSt3__112basic_stringIcNS_11char_traitsIcEENS_9allocatorIcEEEpLB8ne190000Ec.exit.backedge: ; preds = %44, %12
  br label %_ZNSt3__112basic_stringIcNS_11char_traitsIcEENS_9allocatorIcEEEpLB8ne190000Ec.exit, !llvm.loop !6

45:                                               ; preds = %47, %28, %20
  %46 = landingpad { ptr, i32 }
          cleanup
  invoke void @__cxa_end_catch()
          to label %50 unwind label %51

47:                                               ; preds = %35, %33
  invoke void @__cxa_rethrow() #20
          to label %54 unwind label %45

48:                                               ; preds = %43
  %49 = landingpad { ptr, i32 }
          cleanup
  br label %50

.loopexit:                                        ; preds = %12, %43
  ret void

50:                                               ; preds = %45, %48
  %.pn = phi { ptr, i32 } [ %46, %45 ], [ %49, %48 ]
  call void @_ZNSt3__112basic_stringIcNS_11char_traitsIcEENS_9allocatorIcEEED1Ev(ptr noundef nonnull align 8 dereferenceable(24) %0) #16
  resume { ptr, i32 } %.pn

51:                                               ; preds = %45
  %52 = landingpad { ptr, i32 }
          catch ptr null
  %53 = extractvalue { ptr, i32 } %52, 0
  call void @__clang_call_terminate(ptr %53) #17
  unreachable

54:                                               ; preds = %47
  unreachable
}